(dp0
S'formylation'
p1
(dp2
S'target_AA'
p3
S'K'
p4
sS'added_weight'
p5
S'28'
p6
ssS'Hydroxylation'
p7
(dp8
S'target_AA'
p9
S'MCFYW'
p10
sS'added_weight'
p11
S'16'
p12
ssS'deamidation'
p13
(dp14
g3
S'NQ'
p15
sg5
S'1'
p16
ssS'carbamylation'
p17
(dp18
g3
S'CKR'
p19
sg5
S'43'
p20
ssS'N epsilon acetylation'
p21
(dp22
g3
S'K'
p23
sg5
S'42'
p24
ssS'diazarene'
p25
(dp26
S'target_AA'
p27
S'AC'
p28
sS'added_weight'
p29
S'23'
p30
ssS'sodium'
p31
(dp32
g3
S'DE'
p33
sg5
S'22'
p34
ssS'phosphate/sulphate adduct'
p35
(dp36
g3
S'HKR'
p37
sg5
S'98'
p38
ssS'Potassium'
p39
(dp40
g3
S'DE'
p41
sg5
S'38'
p42
ssS'nterm acetylation'
p43
(dp44
S'target_AA'
p45
S'0'
p46
sS'added_weight'
p47
S'42'
p48
ssS'NHS'
p49
(dp50
S'target_AA'
p51
S'K'
p52
sS'added_weight'
p53
S'43.0'
p54
ssS'pentose addition (Ara, Rib, Xyl)'
p55
(dp56
g3
S'KR'
p57
sg5
S'132'
p58
ssS'pyroglutamic acid'
p59
(dp60
g3
S'EQ'
p61
sg5
S'-17'
p62
ssS'N-methylation'
p63
(dp64
g3
S'N'
p65
sg5
S'14'
p66
ssS'biotinylation'
p67
(dp68
g3
S'K'
p69
sg5
S'226'
p70
ssS'Beta Mercaptoethanol'
p71
(dp72
g3
S'C'
p73
sg5
S'76'
p74
ssS'Phosphorylation'
p75
(dp76
g3
S'DKSTY'
p77
sg5
S'80'
p78
ssS'iodoacetamide'
p79
(dp80
g27
S'C'
p81
sg29
S'43'
p82
ssS'O acetylation'
p83
(dp84
g3
S'S'
p85
sg5
S'42'
p86
ssS'S-Heme'
p87
(dp88
S'target_AA'
p89
S'C'
p90
sS'added_weight'
p91
S'617'
p92
ssS'myristoylation'
p93
(dp94
g3
S'GK'
p95
sg5
S'210'
p96
ssS'formaldehyde adduct'
p97
(dp98
g3
S'W'
p99
sg5
I12
ssS'kethoxal'
p100
(dp101
g27
S'R'
p102
sg29
S'43'
p103
ss.